; Function Attrs: mustprogress uwtable
define dso_local noundef i64 @_ZN5cmsys31SystemInformationImplementation22GetProcMemoryAvailableEPKcS2_(ptr nonnull readnone align 8 captures(none) %0, ptr noundef readonly %1, ptr noundef readonly %2) local_unnamed_addr #3 align 2 {
  %4 = alloca [2 x ptr], align 16
  %5 = alloca [1 x i64], align 8
  %6 = alloca %struct.rlimit64, align 8
  call void @llvm.lifetime.start.p0(i64 16, ptr nonnull %4) #34
  store ptr @.str.177, ptr %4, align 16, !tbaa !133
  %7 = getelementptr inbounds nuw i8, ptr %4, i64 8
  store ptr null, ptr %7, align 8, !tbaa !133
  call void @llvm.lifetime.start.p0(i64 8, ptr nonnull %5) #34
  store i64 0, ptr %5, align 8
  %8 = call fastcc noundef i32 @_ZN5cmsys12_GLOBAL__N_117GetFieldsFromFileIxEEiPKcPS3_PT_(ptr noundef nonnull @.str.176, ptr noundef %4, ptr noundef %5)
  %.not.i.i.i = icmp eq i32 %8, 0
  %9 = load i64, ptr %5, align 8
  call void @llvm.lifetime.end.p0(i64 8, ptr nonnull %5) #34
  call void @llvm.lifetime.end.p0(i64 16, ptr nonnull %4) #34
  %.0.i.i = select i1 %.not.i.i.i, i64 %9, i64 -1
  %.not.i = icmp eq ptr %1, null
  br i1 %.not.i, label %_ZN5cmsys31SystemInformationImplementation22GetHostMemoryAvailableEPKc.exit, label %10

10:                                               ; preds = %3
  %11 = call ptr @getenv(ptr noundef nonnull readonly %1) #34
  %.not11.i = icmp eq ptr %11, null
  br i1 %.not11.i, label %_ZN5cmsys31SystemInformationImplementation22GetHostMemoryAvailableEPKc.exit, label %12

12:                                               ; preds = %10
  %13 = call i64 @strtoll(ptr noundef nonnull captures(none) %11, ptr noundef null, i32 noundef 10) #34
  %14 = icmp sgt i64 %13, 0
  br i1 %14, label %15, label %_ZN5cmsys31SystemInformationImplementation22GetHostMemoryAvailableEPKc.exit

15:                                               ; preds = %12
  %16 = call noundef i64 @llvm.smin.i64(i64 %13, i64 %.0.i.i)
  br label %_ZN5cmsys31SystemInformationImplementation22GetHostMemoryAvailableEPKc.exit

_ZN5cmsys31SystemInformationImplementation22GetHostMemoryAvailableEPKc.exit: ; preds = %3, %10, %12, %15
  %.0.i = phi i64 [ %.0.i.i, %3 ], [ %.0.i.i, %10 ], [ %16, %15 ], [ %.0.i.i, %12 ]
  %.not = icmp eq ptr %2, null
  br i1 %.not, label %24, label %17

17:                                               ; preds = %_ZN5cmsys31SystemInformationImplementation22GetHostMemoryAvailableEPKc.exit
  %18 = call ptr @getenv(ptr noundef nonnull %2) #34
  %.not23 = icmp eq ptr %18, null
  br i1 %.not23, label %24, label %19

19:                                               ; preds = %17
  %20 = call i64 @strtoll(ptr noundef nonnull captures(none) %18, ptr noundef null, i32 noundef 10) #34
  %21 = icmp sgt i64 %20, 0
  br i1 %21, label %22, label %24

22:                                               ; preds = %19
  %23 = call noundef i64 @llvm.smin.i64(i64 %20, i64 %.0.i)
  br label %24

24:                                               ; preds = %17, %22, %19, %_ZN5cmsys31SystemInformationImplementation22GetHostMemoryAvailableEPKc.exit
  %.0 = phi i64 [ %.0.i, %_ZN5cmsys31SystemInformationImplementation22GetHostMemoryAvailableEPKc.exit ], [ %.0.i, %17 ], [ %23, %22 ], [ %.0.i, %19 ]
  call void @llvm.lifetime.start.p0(i64 16, ptr nonnull %6) #34
  %25 = call i32 @getrlimit64(i32 noundef 2, ptr noundef nonnull %6) #34
  %26 = icmp eq i32 %25, 0
  %27 = load i64, ptr %6, align 8
  %28 = icmp ne i64 %27, -1
  %or.cond = select i1 %26, i1 %28, i1 false
  br i1 %or.cond, label %29, label %32

29:                                               ; preds = %24
  %30 = sdiv i64 %27, 1024
  %31 = call noundef i64 @llvm.smin.i64(i64 %30, i64 %.0)
  br label %32

32:                                               ; preds = %29, %24
  %.3 = phi i64 [ %31, %29 ], [ %.0, %24 ]
  %33 = call i32 @getrlimit64(i32 noundef 9, ptr noundef nonnull %6) #34
  %34 = icmp eq i32 %33, 0
  %35 = load i64, ptr %6, align 8
  %36 = icmp ne i64 %35, -1
  %or.cond5 = select i1 %34, i1 %36, i1 false
  br i1 %or.cond5, label %37, label %40

37:                                               ; preds = %32
  %38 = sdiv i64 %35, 1024
  %39 = call noundef i64 @llvm.smin.i64(i64 %38, i64 %.3)
  br label %40

40:                                               ; preds = %37, %32
  %.4 = phi i64 [ %39, %37 ], [ %.3, %32 ]
  call void @llvm.lifetime.end.p0(i64 16, ptr nonnull %6) #34
  ret i64 %.4
}